; Function Attrs: mustprogress noreturn uwtable
define noundef i64 @_Z19fast_rv32e_fcvt_h_lP11processor_t6insn_tm(ptr nocapture noundef readonly %0, i64 %1, i64 noundef %2) local_unnamed_addr #3 personality ptr @__gxx_personality_v0 {
  %4 = getelementptr inbounds i8, ptr %0, i64 4144
  %.sink.i = load i64, ptr %4, align 8
  %5 = and i64 %.sink.i, 134217728
  %.0.i.not = icmp eq i64 %5, 0
  br i1 %.0.i.not, label %6, label %14

6:                                                ; preds = %3
  %7 = getelementptr inbounds i8, ptr %0, i64 4152
  %.sink.i8 = load i64, ptr %7, align 8
  %8 = and i64 %.sink.i8, 4
  %.0.i9.not = icmp eq i64 %8, 0
  br i1 %.0.i9.not, label %9, label %14

9:                                                ; preds = %6
  %10 = tail call ptr @__cxa_allocate_exception(i64 32) #14
  %11 = getelementptr inbounds i8, ptr %10, i64 8
  store i64 2, ptr %11, align 8
  %12 = getelementptr inbounds i8, ptr %10, i64 16
  store i8 0, ptr %12, align 8
  %13 = getelementptr inbounds i8, ptr %10, i64 24
  store i64 %1, ptr %13, align 8
  store ptr getelementptr inbounds ({ [12 x ptr] }, ptr @_ZTV24trap_illegal_instruction, i64 0, i32 0, i64 2), ptr %10, align 8
  tail call void @__cxa_throw(ptr nonnull %10, ptr nonnull @_ZTI24trap_illegal_instruction, ptr nonnull @_ZN24trap_illegal_instructionD2Ev) #15
  unreachable

14:                                               ; preds = %6, %3
  %15 = tail call ptr @__cxa_allocate_exception(i64 32) #14
  %16 = getelementptr inbounds i8, ptr %15, i64 8
  store i64 2, ptr %16, align 8
  %17 = getelementptr inbounds i8, ptr %15, i64 16
  store i8 0, ptr %17, align 8
  %18 = getelementptr inbounds i8, ptr %15, i64 24
  store i64 %1, ptr %18, align 8
  store ptr getelementptr inbounds ({ [12 x ptr] }, ptr @_ZTV24trap_illegal_instruction, i64 0, i32 0, i64 2), ptr %15, align 8
  tail call void @__cxa_throw(ptr nonnull %15, ptr nonnull @_ZTI24trap_illegal_instruction, ptr nonnull @_ZN24trap_illegal_instructionD2Ev) #15
  unreachable
}